; Function Attrs: mustprogress nounwind willreturn uwtable
define void @Wln_NtkStaticFanoutStop(ptr noundef captures(none) initializes((248, 256), (264, 272)) %0) local_unnamed_addr #9 {
  %2 = getelementptr inbounds nuw i8, ptr %0, i64 248
  %3 = getelementptr inbounds nuw i8, ptr %0, i64 256
  %4 = load ptr, ptr %3, align 8, !tbaa !17
  %.not.i = icmp eq ptr %4, null
  br i1 %.not.i, label %Vec_IntErase.exit, label %5

5:                                                ; preds = %1
  tail call void @free(ptr noundef nonnull %4) #18
  store ptr null, ptr %3, align 8, !tbaa !17
  br label %Vec_IntErase.exit

Vec_IntErase.exit:                                ; preds = %1, %5
  %6 = getelementptr inbounds nuw i8, ptr %0, i64 252
  store i32 0, ptr %6, align 4, !tbaa !21
  store i32 0, ptr %2, align 8, !tbaa !18
  %7 = getelementptr inbounds nuw i8, ptr %0, i64 272
  %8 = load ptr, ptr %7, align 8, !tbaa !17
  %.not.i2 = icmp eq ptr %8, null
  br i1 %.not.i2, label %Vec_IntErase.exit3, label %9

9:                                                ; preds = %Vec_IntErase.exit
  tail call void @free(ptr noundef nonnull %8) #18
  store ptr null, ptr %7, align 8, !tbaa !17
  br label %Vec_IntErase.exit3

Vec_IntErase.exit3:                               ; preds = %Vec_IntErase.exit, %9
  %10 = getelementptr inbounds nuw i8, ptr %0, i64 264
  %11 = getelementptr inbounds nuw i8, ptr %0, i64 268
  store i32 0, ptr %11, align 4, !tbaa !21
  store i32 0, ptr %10, align 8, !tbaa !18
  ret void
}